target datalayout = "e-m:e-p270:32:32-p271:32:32-p272:64:64-i64:64-i128:128-f80:128-n8:16:32:64-S128"
target triple = "x86_64-pc-linux-gnu"

; Function Attrs: nounwind sspstrong uwtable
define ptr @cJSON_ParseWithOpts(ptr noundef %0, ptr noundef %1, i32 noundef %2) #0 {
  %4 = alloca ptr, align 8
  %5 = alloca ptr, align 8
  %6 = alloca ptr, align 8
  %7 = alloca i32, align 4
  %8 = alloca i64, align 8
  %9 = alloca i32, align 4
  store ptr %0, ptr %5, align 8, !tbaa !33
  store ptr %1, ptr %6, align 8, !tbaa !38
  store i32 %2, ptr %7, align 4, !tbaa !40
  call void @llvm.lifetime.start.p0(i64 8, ptr %8) #10
  %10 = load ptr, ptr %5, align 8, !tbaa !33
  %11 = icmp eq ptr null, %10
  br i1 %11, label %12, label %13

12:                                               ; preds = %3
  store ptr null, ptr %4, align 8
  store i32 1, ptr %9, align 4
  br label %22

13:                                               ; preds = %3
  %14 = load ptr, ptr %5, align 8, !tbaa !33
  %15 = call i64 @strlen(ptr noundef %14) #11
  %16 = add i64 %15, 1
  store i64 %16, ptr %8, align 8, !tbaa !34
  %17 = load ptr, ptr %5, align 8, !tbaa !33
  %18 = load i64, ptr %8, align 8, !tbaa !34
  %19 = load ptr, ptr %6, align 8, !tbaa !38
  %20 = load i32, ptr %7, align 4, !tbaa !40
  %21 = call ptr @cJSON_ParseWithLengthOpts(ptr noundef %17, i64 noundef %18, ptr noundef %19, i32 noundef %20)
  store ptr %21, ptr %4, align 8
  store i32 1, ptr %9, align 4
  br label %22

22:                                               ; preds = %13, %12
  call void @llvm.lifetime.end.p0(i64 8, ptr %8) #10
  %23 = load ptr, ptr %4, align 8
  ret ptr %23
}