; Function Attrs: nounwind sspstrong uwtable
define ptr @cJSON_ParseWithOpts(ptr noundef %0, ptr noundef %1, i32 noundef %2) local_unnamed_addr #8 {
  %4 = icmp eq ptr %0, null
  br i1 %4, label %9, label %5

5:                                                ; preds = %3
  %6 = tail call i64 @strlen(ptr noundef nonnull dereferenceable(1) %0) #32
  %7 = add i64 %6, 1
  %8 = tail call ptr @cJSON_ParseWithLengthOpts(ptr noundef nonnull %0, i64 noundef %7, ptr noundef %1, i32 noundef %2)
  br label %9

9:                                                ; preds = %3, %5
  %.0 = phi ptr [ %8, %5 ], [ null, %3 ]
  ret ptr %.0
}